target datalayout = "e-m:e-p270:32:32-p271:32:32-p272:64:64-i64:64-i128:128-f80:128-n8:16:32:64-S128"
target triple = "x86_64-pc-linux-gnu"

; Function Attrs: nounwind uwtable
define void @stbhw__stbhw__set_pixel_whiten(ptr noundef %0, i32 noundef %1, i32 noundef %2, i32 noundef %3, ptr noundef %4) #0 {
  %6 = alloca ptr, align 8
  %7 = alloca i32, align 4
  %8 = alloca i32, align 4
  %9 = alloca i32, align 4
  %10 = alloca ptr, align 8
  %11 = alloca [3 x i8], align 1
  %12 = alloca i32, align 4
  store ptr %0, ptr %6, align 8, !tbaa !3
  store i32 %1, ptr %7, align 4, !tbaa !10
  store i32 %2, ptr %8, align 4, !tbaa !10
  store i32 %3, ptr %9, align 4, !tbaa !10
  store ptr %4, ptr %10, align 8, !tbaa !3
  call void @llvm.lifetime.start.p0(i64 3, ptr %11) #6
  call void @llvm.lifetime.start.p0(i64 4, ptr %12) #6
  store i32 0, ptr %12, align 4, !tbaa !10
  br label %13

13:                                               ; preds = %30, %5
  %14 = load i32, ptr %12, align 4, !tbaa !10
  %15 = icmp slt i32 %14, 3
  br i1 %15, label %16, label %33

16:                                               ; preds = %13
  %17 = load ptr, ptr %10, align 8, !tbaa !3
  %18 = load i32, ptr %12, align 4, !tbaa !10
  %19 = sext i32 %18 to i64
  %20 = getelementptr inbounds i8, ptr %17, i64 %19
  %21 = load i8, ptr %20, align 1, !tbaa !64
  %22 = zext i8 %21 to i32
  %23 = mul nsw i32 %22, 2
  %24 = add nsw i32 %23, 255
  %25 = sdiv i32 %24, 3
  %26 = trunc i32 %25 to i8
  %27 = load i32, ptr %12, align 4, !tbaa !10
  %28 = sext i32 %27 to i64
  %29 = getelementptr inbounds [3 x i8], ptr %11, i64 0, i64 %28
  store i8 %26, ptr %29, align 1, !tbaa !64
  br label %30

30:                                               ; preds = %16
  %31 = load i32, ptr %12, align 4, !tbaa !10
  %32 = add nsw i32 %31, 1
  store i32 %32, ptr %12, align 4, !tbaa !10
  br label %13, !llvm.loop !106

33:                                               ; preds = %13
  %34 = load ptr, ptr %6, align 8, !tbaa !3
  %35 = load i32, ptr %9, align 4, !tbaa !10
  %36 = load i32, ptr %7, align 4, !tbaa !10
  %37 = mul nsw i32 %35, %36
  %38 = sext i32 %37 to i64
  %39 = getelementptr inbounds i8, ptr %34, i64 %38
  %40 = load i32, ptr %8, align 4, !tbaa !10
  %41 = mul nsw i32 %40, 3
  %42 = sext i32 %41 to i64
  %43 = getelementptr inbounds i8, ptr %39, i64 %42
  %44 = getelementptr inbounds [3 x i8], ptr %11, i64 0, i64 0
  call void @llvm.memcpy.p0.p0.i64(ptr align 1 %43, ptr align 1 %44, i64 3, i1 false)
  call void @llvm.lifetime.end.p0(i64 4, ptr %12) #6
  call void @llvm.lifetime.end.p0(i64 3, ptr %11) #6
  ret void
}