; Function Attrs: nofree norecurse nosync nounwind memory(argmem: readwrite) uwtable
define void @stbhw__stbhw__set_pixel_whiten(ptr noundef writeonly captures(none) %0, i32 noundef %1, i32 noundef %2, i32 noundef %3, ptr noundef readonly captures(none) %4) local_unnamed_addr #6 {
  %6 = alloca [3 x i8], align 1
  call void @llvm.lifetime.start.p0(i64 3, ptr nonnull %6) #15
  br label %7

7:                                                ; preds = %5, %7
  %indvars.iv = phi i64 [ 0, %5 ], [ %indvars.iv.next, %7 ]
  %8 = getelementptr inbounds nuw i8, ptr %4, i64 %indvars.iv
  %9 = load i8, ptr %8, align 1, !tbaa !58
  %10 = zext i8 %9 to i16
  %11 = shl nuw nsw i16 %10, 1
  %12 = add nuw nsw i16 %11, 255
  %13 = udiv i16 %12, 3
  %14 = trunc nuw i16 %13 to i8
  %15 = getelementptr inbounds nuw [3 x i8], ptr %6, i64 0, i64 %indvars.iv
  store i8 %14, ptr %15, align 1, !tbaa !58
  %indvars.iv.next = add nuw nsw i64 %indvars.iv, 1
  %exitcond.not = icmp eq i64 %indvars.iv.next, 3
  br i1 %exitcond.not, label %16, label %7, !llvm.loop !102

16:                                               ; preds = %7
  %17 = mul nsw i32 %3, %1
  %18 = sext i32 %17 to i64
  %19 = getelementptr inbounds i8, ptr %0, i64 %18
  %20 = mul nsw i32 %2, 3
  %21 = sext i32 %20 to i64
  %22 = getelementptr inbounds i8, ptr %19, i64 %21
  call void @llvm.memcpy.p0.p0.i64(ptr noundef nonnull align 1 dereferenceable(3) %22, ptr noundef nonnull align 1 dereferenceable(3) %6, i64 3, i1 false)
  call void @llvm.lifetime.end.p0(i64 3, ptr nonnull %6) #15
  ret void
}